(lp0
(F0.5
F0.05
F0.92
tp1
a(F0.5
F0.1
F0.756
tp2
a(F0.5
F0.15
F0.554
tp3
a(F0.5
F0.2
F0.484
tp4
a(F0.5
F0.25
F0.328
tp5
a(F0.5
F0.3
F0.276
tp6
a(F0.5
F0.35
F0.222
tp7
a(F0.5
F0.4
F0.166
tp8
a(F0.5
F0.45
F0.16
tp9
a(F0.5
F0.5
F0.124
tp10
a(F0.5
F0.55
F0.106
tp11
a(F0.5
F0.6
F0.096
tp12
a(F0.5
F0.65
F0.078
tp13
a(F0.5
F0.7
F0.068
tp14
a(F0.5
F0.75
F0.046
tp15
a(F0.5
F0.8
F0.04
tp16
a(F0.5
F0.85
F0.03
tp17
a(F0.5
F0.9
F0.034
tp18
a(F0.5
F0.95
F0.032
tp19
a(F0.5
F1.0
F0.038
tp20
a.