(lp0
(F5.0
F0.05
F0.114
tp1
a(F5.0
F0.1
F0.062
tp2
a(F5.0
F0.15
F0.044
tp3
a(F5.0
F0.2
F0.048
tp4
a(F5.0
F0.25
F0.022
tp5
a(F5.0
F0.3
F0.026
tp6
a(F5.0
F0.35
F0.016
tp7
a(F5.0
F0.4
F0.014
tp8
a(F5.0
F0.45
F0.02
tp9
a(F5.0
F0.5
F0.012
tp10
a(F5.0
F0.55
F0.014
tp11
a(F5.0
F0.6
F0.006
tp12
a(F5.0
F0.65
F0.012
tp13
a(F5.0
F0.7
F0.014
tp14
a(F5.0
F0.75
F0.01
tp15
a(F5.0
F0.8
F0.004
tp16
a(F5.0
F0.85
F0.004
tp17
a(F5.0
F0.9
F0.008
tp18
a(F5.0
F0.95
F0.004
tp19
a(F5.0
F1.0
F0.006
tp20
a.