(lp0
(lp1
F0.9777777777777777
aF0.9777777777777777
aF0.9296296296296296
aF0.9666666666666667
aF0.9244444444444444
aF0.9592592592592593
aF0.9142857142857143
aF0.8763888888888889
aF0.9123456790123456
aF0.8833333333333333
aF0.8444444444444444
aF0.9296296296296296
aF0.9256410256410257
aF0.9222222222222223
aF0.9288888888888889
aF0.9013888888888889
aF0.9287581699346406
aF0.837037037037037
aF0.867251461988304
aF0.8488888888888889
aF0.8507936507936508
aF0.8247474747474748
aF0.8376811594202899
aF0.8592592592592593
aF0.8706666666666667
aF0.8743589743589744
aF0.8263374485596707
aF0.8265873015873015
aF0.8616858237547893
aF0.8440740740740741
aF0.8326164874551971
aF0.8489583333333334
aF0.8255892255892255
aF0.8594771241830066
aF0.8044444444444444
aF0.8179012345679012
aF0.8327327327327327
aF0.8429824561403508
aF0.8262108262108262
aF0.7994444444444444
aF0.8124661246612466
aF0.8238095238095238
aF0.8387596899224806
aF0.85
aF0.8004938271604938
aF0.808695652173913
aF0.7862884160756501
aF0.8152777777777778
aF0.807936507936508
aF0.84
aF0.837037037037037
aF0.7972222222222223
aF0.7916142557651992
aF0.7878600823045268
aF0.8361616161616162
aF0.8125
aF0.789083820662768
aF0.7844827586206896
aF0.7809792843691149
aF0.7848148148148149
aF0.7985428051001822
aF0.7887096774193548
aF0.7865961199294532
aF0.7706597222222222
aF0.8022222222222222
aF0.7867003367003367
aF0.7772802653399669
aF0.765359477124183
aF0.7772946859903381
aF0.7684126984126984
aF0.8068857589984351
aF0.7905864197530864
aF0.7654490106544901
aF0.7894894894894895
aF0.770074074074074
aF0.7435672514619883
aF0.7727272727272727
aF0.7605413105413106
aF0.7762306610407876
aF0.7761111111111111
aF0.7869684499314129
aF0.7787262872628726
aF0.7728246318607764
aF0.7667989417989418
aF0.7681045751633987
aF0.7440568475452196
aF0.7521072796934866
aF0.7626262626262627
aF0.7543071161048689
aF0.7538271604938271
aF0.7532356532356532
aF0.7404589371980677
aF0.7482676224611708
aF0.7540189125295508
aF0.7567251461988304
aF0.7528935185185185
aF0.7505154639175258
aF0.7453514739229025
aF0.7475869809203143
aa(lp2
F0.9333333333333333
aF0.9833333333333333
aF0.9740740740740741
aF0.9888888888888889
aF0.9355555555555556
aF0.9907407407407407
aF0.973015873015873
aF0.9527777777777777
aF0.9308641975308642
aF0.9633333333333334
aF0.896969696969697
aF0.8907407407407407
aF0.9042735042735043
aF0.9
aF0.8725925925925926
aF0.8868055555555555
aF0.8594771241830066
aF0.9049382716049382
aF0.8953216374269006
aF0.9344444444444444
aF0.8116402116402116
aF0.8601010101010101
aF0.8719806763285024
aF0.8490740740740741
aF0.8635555555555555
aF0.8615384615384616
aF0.808641975308642
aF0.8666666666666667
aF0.8279693486590038
aF0.8722222222222222
aF0.8132616487455198
aF0.8572916666666667
aF0.7922558922558922
aF0.8405228758169935
aF0.8482539682539683
aF0.8638888888888889
aF0.8363363363363363
aF0.8383040935672514
aF0.8304843304843305
aF0.8186111111111111
aF0.8249322493224932
aF0.796031746031746
aF0.7930232558139535
aF0.8027777777777778
aF0.8044444444444444
aF0.8118357487922705
aF0.8096926713947991
aF0.8247685185185185
aF0.8038548752834467
aF0.8082222222222222
aF0.8152505446623094
aF0.8106837606837607
aF0.8
aF0.7934156378600823
aF0.7719191919191919
aF0.8107142857142857
aF0.7787524366471735
aF0.8128352490421455
aF0.8080979284369115
aF0.8105555555555556
aF0.7963570127504553
aF0.7949820788530466
aF0.8126984126984127
aF0.7869791666666667
aF0.7738461538461539
aF0.8031986531986532
aF0.82106135986733
aF0.778921568627451
aF0.7922705314009661
aF0.7855555555555556
aF0.776056338028169
aF0.796141975308642
aF0.7742770167427702
aF0.7660660660660661
aF0.8007407407407408
aF0.7690058479532164
aF0.7836940836940837
aF0.7787749287749288
aF0.7827004219409283
aF0.7675
aF0.7636488340192044
aF0.7555555555555555
aF0.7614457831325301
aF0.7506613756613757
aF0.7577777777777778
aF0.7631782945736434
aF0.7546615581098339
aF0.7526515151515152
aF0.7558052434456929
aF0.7641975308641975
aF0.7505494505494505
aF0.7638888888888888
aF0.7565113500597371
aF0.7495271867612293
aF0.7459649122807017
aF0.7520833333333333
aF0.7471935853379152
aF0.75
aF0.7485970819304153
aa(lp3
F0.9888888888888889
aF0.9944444444444445
aF0.9629629629629629
aF0.9972222222222222
aF0.9822222222222222
aF0.8907407407407407
aF0.9063492063492063
aF0.8930555555555556
aF0.9123456790123456
aF0.9
aF0.9101010101010101
aF0.9120370370370371
aF0.9427350427350427
aF0.903968253968254
aF0.8851851851851852
aF0.8833333333333333
aF0.9169934640522875
aF0.9444444444444444
aF0.8485380116959065
aF0.8772222222222222
aF0.919047619047619
aF0.8742424242424243
aF0.8497584541062801
aF0.8425925925925926
aF0.9026666666666666
aF0.8504273504273504
aF0.8440329218106996
aF0.8416666666666667
aF0.832183908045977
aF0.8488888888888889
aF0.9164874551971326
aF0.86875
aF0.835016835016835
aF0.846078431372549
aF0.9038095238095238
aF0.8009259259259259
aF0.8183183183183184
aF0.8473684210526315
aF0.8760683760683761
aF0.8441666666666666
aF0.8121951219512196
aF0.8275132275132275
aF0.851937984496124
aF0.8154040404040404
aF0.8069135802469136
aF0.8277777777777777
aF0.8430260047281324
aF0.8233796296296296
aF0.7950113378684808
aF0.782
aF0.7838779956427016
aF0.7927350427350427
aF0.7819706498951782
aF0.7792181069958848
aF0.7987878787878788
aF0.7952380952380952
aF0.764522417153996
aF0.813984674329502
aF0.7979284369114877
aF0.8290740740740741
aF0.7797814207650273
aF0.7806451612903226
aF0.7747795414462081
aF0.7861111111111111
aF0.7463247863247863
aF0.7801346801346801
aF0.751575456053068
aF0.7887254901960784
aF0.794524959742351
aF0.782063492063492
aF0.7763693270735524
aF0.7833333333333333
aF0.7849315068493151
aF0.7675675675675676
aF0.7733333333333333
aF0.7530701754385964
aF0.7544011544011544
aF0.7789173789173789
aF0.7686357243319268
aF0.7697222222222222
aF0.7713305898491084
aF0.7682926829268293
aF0.773627844712182
aF0.7756613756613756
aF0.7419607843137255
aF0.7511627906976744
aF0.7656449553001277
aF0.7643939393939394
aF0.7610486891385768
aF0.7395061728395061
aF0.7666666666666667
aF0.7522946859903382
aF0.7696535244922341
aF0.7476359338061466
aF0.7501754385964913
aF0.7474537037037037
aF0.7490263459335624
aF0.751360544217687
aF0.7470258136924803
aa(lp4
F0.9777777777777777
aF0.9777777777777777
aF0.9740740740740741
aF0.9805555555555555
aF0.96
aF0.9055555555555556
aF0.919047619047619
aF0.9375
aF0.8641975308641975
aF0.9322222222222222
aF0.9272727272727272
aF0.9305555555555556
aF0.9495726495726495
aF0.8976190476190476
aF0.8925925925925926
aF0.9111111111111111
aF0.9215686274509803
aF0.8648148148148148
aF0.8789473684210526
aF0.85
aF0.9285714285714286
aF0.8474747474747475
aF0.8318840579710145
aF0.8657407407407407
aF0.7964444444444444
aF0.8675213675213675
aF0.9045267489711935
aF0.8626984126984127
aF0.8862068965517241
aF0.8055555555555556
aF0.8086021505376344
aF0.8479166666666667
aF0.8592592592592593
aF0.8323529411764706
aF0.8419047619047619
aF0.8515432098765432
aF0.8576576576576577
aF0.8064327485380117
aF0.8310541310541311
aF0.8422222222222222
aF0.8230352303523035
aF0.8312169312169312
aF0.8483204134366925
aF0.8166666666666667
aF0.785679012345679
aF0.7905797101449276
aF0.8
aF0.8078703703703703
aF0.8056689342403628
aF0.7986666666666666
aF0.7915032679738562
aF0.780982905982906
aF0.7951781970649895
aF0.8059670781893004
aF0.8052525252525252
aF0.8375
aF0.8200779727095516
aF0.8114942528735632
aF0.7905838041431261
aF0.7875925925925926
aF0.810200364298725
aF0.7989247311827957
aF0.7869488536155202
aF0.7715277777777778
aF0.7904273504273505
aF0.8015151515151515
aF0.8104477611940298
aF0.786437908496732
aF0.8095008051529791
aF0.7644444444444445
aF0.7921752738654148
aF0.7924382716049383
aF0.7649923896499239
aF0.7830330330330331
aF0.7684444444444445
aF0.7912280701754386
aF0.7805194805194805
aF0.7861823361823361
aF0.7834036568213784
aF0.7602777777777778
aF0.7647462277091907
aF0.7565040650406504
aF0.7668005354752343
aF0.764021164021164
aF0.7477124183006536
aF0.762015503875969
aF0.761941251596424
aF0.7607323232323232
aF0.7671660424469413
aF0.7555555555555555
aF0.7432234432234432
aF0.7590579710144928
aF0.7438470728793309
aF0.7580378250591017
aF0.7431578947368421
aF0.7547453703703704
aF0.7487972508591065
aF0.7433106575963719
aF0.7455667789001122
aa(lp5
F0.9777777777777777
aF0.9888888888888889
aF0.9555555555555556
aF0.95
aF0.96
aF0.912962962962963
aF0.9095238095238095
aF0.9513888888888888
aF0.9148148148148149
aF0.9266666666666666
aF0.9414141414141414
aF0.8953703703703704
aF0.8991452991452992
aF0.9563492063492064
aF0.9362962962962963
aF0.9229166666666667
aF0.8718954248366013
aF0.8537037037037037
aF0.8578947368421053
aF0.8994444444444445
aF0.8068783068783069
aF0.8696969696969697
aF0.9057971014492754
aF0.8212962962962963
aF0.8875555555555555
aF0.8217948717948718
aF0.8753086419753087
aF0.8757936507936508
aF0.8210727969348659
aF0.8651851851851852
aF0.7985663082437277
aF0.8427083333333333
aF0.8774410774410775
aF0.8558823529411764
aF0.8415873015873016
aF0.8533950617283951
aF0.8552552552552553
aF0.8473684210526315
aF0.8458689458689459
aF0.8616666666666667
aF0.8119241192411925
aF0.8373015873015873
aF0.8077519379844961
aF0.827020202020202
aF0.8138271604938272
aF0.8422705314009662
aF0.7732860520094562
aF0.8381944444444445
aF0.8226757369614512
aF0.804
aF0.7655773420479303
aF0.8074786324786325
aF0.7779874213836478
aF0.7786008230452675
aF0.8157575757575758
aF0.7932539682539682
aF0.8235867446393762
aF0.8212643678160919
aF0.8020715630885122
aF0.7924074074074074
aF0.8134790528233151
aF0.7815412186379929
aF0.7497354497354497
aF0.8277777777777777
aF0.82
aF0.7597643097643098
aF0.8019900497512438
aF0.7805555555555556
aF0.7830917874396135
aF0.7396825396825397
aF0.7818466353677621
aF0.7813271604938271
aF0.7788432267884323
aF0.765015015015015
aF0.7792592592592592
aF0.7475146198830409
aF0.7518037518037518
aF0.7834757834757835
aF0.760759493670886
aF0.7515277777777778
aF0.7685871056241427
aF0.7453929539295393
aF0.7734939759036145
aF0.767989417989418
aF0.7450980392156863
aF0.765374677002584
aF0.7546615581098339
aF0.7722222222222223
aF0.7451935081148564
aF0.7585185185185185
aF0.7716727716727717
aF0.7708937198067632
aF0.7612903225806451
aF0.764775413711584
aF0.7466666666666667
aF0.75625
aF0.7458190148911799
aF0.7526077097505669
aF0.742648709315376
aa(lp6
F0.9888888888888889
aF0.9944444444444445
aF0.9851851851851852
aF0.9944444444444445
aF0.9133333333333333
aF0.9666666666666667
aF0.8857142857142857
aF0.9513888888888888
aF0.9703703703703703
aF0.9488888888888889
aF0.9252525252525252
aF0.9138888888888889
aF0.9222222222222223
aF0.9182539682539682
aF0.8733333333333333
aF0.8819444444444444
aF0.9215686274509803
aF0.828395061728395
aF0.8818713450292398
aF0.8911111111111111
aF0.8423280423280424
aF0.847979797979798
aF0.9251207729468599
aF0.8847222222222222
aF0.9062222222222223
aF0.8418803418803419
aF0.8353909465020576
aF0.8380952380952381
aF0.8337164750957854
aF0.827037037037037
aF0.8516129032258064
aF0.840625
aF0.8202020202020202
aF0.8362745098039216
aF0.7860317460317461
aF0.8583333333333333
aF0.8387387387387387
aF0.835672514619883
aF0.8319088319088319
aF0.8002777777777778
aF0.8252032520325203
aF0.834920634920635
aF0.8529715762273902
aF0.8083333333333333
aF0.797037037037037
aF0.806280193236715
aF0.810401891252955
aF0.8094907407407408
aF0.8011337868480726
aF0.8117777777777778
aF0.757516339869281
aF0.7978632478632479
aF0.7976939203354297
aF0.7814814814814814
aF0.7745454545454545
aF0.789484126984127
aF0.7744639376218324
aF0.8145593869731801
aF0.7821092278719397
aF0.8062962962962963
aF0.7759562841530054
aF0.7668458781362008
aF0.774074074074074
aF0.7704861111111111
aF0.8076923076923077
aF0.7737373737373737
aF0.8001658374792703
aF0.7916666666666666
aF0.8022544283413848
aF0.7823809523809524
aF0.7687010954616589
aF0.7600308641975309
aF0.7910197869101979
aF0.7588588588588588
aF0.766962962962963
aF0.7698830409356725
aF0.7698412698412699
aF0.7774928774928775
aF0.7585091420534459
aF0.7747222222222222
aF0.7540466392318245
aF0.7651761517615177
aF0.7633199464524766
aF0.7621693121693122
aF0.755686274509804
aF0.7679586563307493
aF0.7427841634738186
aF0.7493686868686869
aF0.7750312109862671
aF0.7485185185185185
aF0.7566544566544566
aF0.7541062801932367
aF0.7627240143369176
aF0.74822695035461
aF0.756608187134503
aF0.7540509259259259
aF0.7459335624284078
aF0.7417233560090702
aF0.7487093153759821
aa(lp7
F0.9555555555555556
aF0.9777777777777777
aF0.9666666666666667
aF0.9694444444444444
aF0.8711111111111111
aF0.9166666666666666
aF0.8904761904761904
aF0.9708333333333333
aF0.9197530864197531
aF0.93
aF0.8505050505050505
aF0.8981481481481481
aF0.8777777777777778
aF0.8992063492063492
aF0.9081481481481481
aF0.9027777777777778
aF0.8738562091503268
aF0.8981481481481481
aF0.9035087719298246
aF0.895
aF0.8211640211640212
aF0.8712121212121212
aF0.8879227053140096
aF0.9055555555555556
aF0.8937777777777778
aF0.8141025641025641
aF0.8411522633744856
aF0.8666666666666667
aF0.8513409961685824
aF0.825925925925926
aF0.8706093189964158
aF0.8444444444444444
aF0.8306397306397306
aF0.800326797385621
aF0.8358730158730159
aF0.846604938271605
aF0.8639639639639639
aF0.8616959064327485
aF0.8301994301994302
aF0.815
aF0.7867208672086721
aF0.8275132275132275
aF0.81343669250646
aF0.8262626262626263
aF0.8034567901234568
aF0.8330917874396135
aF0.8111111111111111
aF0.7773148148148148
aF0.835827664399093
aF0.7971111111111111
aF0.7849673202614379
aF0.7769230769230769
aF0.8425576519916143
aF0.8203703703703704
aF0.8123232323232323
aF0.807936507936508
aF0.7943469785575049
aF0.7567049808429118
aF0.7998116760828625
aF0.8212962962962963
aF0.7857923497267759
aF0.7810035842293906
aF0.8195767195767196
aF0.7845486111111111
aF0.7993162393162393
aF0.7888888888888889
aF0.7907131011608624
aF0.7669934640522876
aF0.7714975845410628
aF0.7742857142857142
aF0.7658841940532082
aF0.8040123456790124
aF0.7849315068493151
aF0.7858858858858859
aF0.7727407407407407
aF0.7783625730994153
aF0.7812409812409813
aF0.7659544159544159
aF0.7578059071729958
aF0.7609722222222223
aF0.7621399176954733
aF0.7598915989159891
aF0.7551539491298528
aF0.7489417989417989
aF0.7525490196078432
aF0.7528423772609819
aF0.7431673052362707
aF0.7630050505050505
aF0.747940074906367
aF0.7644444444444445
aF0.7412698412698413
aF0.7524154589371981
aF0.7580645161290323
aF0.7559101654846335
aF0.7521637426900585
aF0.7484953703703704
aF0.7534936998854525
aF0.7488662131519275
aF0.743658810325477
aa(lp8
F1.0
aF0.9944444444444445
aF0.9925925925925926
aF0.9722222222222222
aF0.9844444444444445
aF0.8925925925925926
aF0.9349206349206349
aF0.9680555555555556
aF0.9197530864197531
aF0.9166666666666666
aF0.8787878787878788
aF0.8601851851851852
aF0.8760683760683761
aF0.8555555555555555
aF0.8622222222222222
aF0.8895833333333333
aF0.8908496732026144
aF0.8185185185185185
aF0.8742690058479532
aF0.8655555555555555
aF0.8862433862433863
aF0.8848484848484849
aF0.91256038647343
aF0.8546296296296296
aF0.8564444444444445
aF0.8636752136752137
aF0.8337448559670781
aF0.8543650793650793
aF0.8563218390804598
aF0.8377777777777777
aF0.8673835125448028
aF0.8770833333333333
aF0.8973063973063973
aF0.8513071895424836
aF0.8434920634920635
aF0.8564814814814815
aF0.8315315315315316
aF0.8444444444444444
aF0.8566951566951567
aF0.8269444444444445
aF0.813550135501355
aF0.8187830687830688
aF0.838501291989664
aF0.7871212121212121
aF0.7987654320987654
aF0.8195652173913044
aF0.8033096926713948
aF0.8282407407407407
aF0.8015873015873016
aF0.7873333333333333
aF0.7943355119825708
aF0.8061965811965812
aF0.7576519916142558
aF0.8168724279835391
aF0.8117171717171717
aF0.7914682539682539
aF0.7923976608187134
aF0.8166666666666667
aF0.8180790960451978
aF0.7875925925925926
aF0.7925318761384336
aF0.782437275985663
aF0.8105820105820106
aF0.7970486111111111
aF0.7890598290598291
aF0.7962962962962963
aF0.7822553897180763
aF0.8124183006535948
aF0.7581320450885668
aF0.7725396825396825
aF0.7755868544600939
aF0.7776234567901235
aF0.7633181126331812
aF0.7825825825825826
aF0.7746666666666666
aF0.7833333333333333
aF0.7787878787878788
aF0.7678062678062678
aF0.770182841068917
aF0.7756944444444445
aF0.7674897119341564
aF0.7691056910569106
aF0.7669344042838019
aF0.7787037037037037
aF0.7481045751633987
aF0.7622739018087855
aF0.7745849297573435
aF0.7617424242424242
aF0.765043695380774
aF0.7662962962962963
aF0.7368742368742369
aF0.7609903381642512
aF0.7519713261648745
aF0.750354609929078
aF0.7488888888888889
aF0.7546296296296297
aF0.7525773195876289
aF0.7515873015873016
aF0.7502805836139169
aa(lp9
F1.0
aF0.9388888888888889
aF0.9962962962962963
aF0.9222222222222223
aF0.9311111111111111
aF0.9185185185185185
aF0.9793650793650793
aF0.9388888888888889
aF0.8987654320987655
aF0.9722222222222222
aF0.8585858585858586
aF0.9074074074074074
aF0.9598290598290599
aF0.8944444444444445
aF0.9118518518518518
aF0.8826388888888889
aF0.9052287581699346
aF0.8654320987654321
aF0.8871345029239766
aF0.8961111111111111
aF0.928042328042328
aF0.8848484848484849
aF0.9227053140096618
aF0.8203703703703704
aF0.7942222222222223
aF0.8747863247863248
aF0.851440329218107
aF0.8492063492063492
aF0.8137931034482758
aF0.825925925925926
aF0.7860215053763441
aF0.8440972222222223
aF0.8521885521885522
aF0.861764705882353
aF0.8215873015873015
aF0.8222222222222222
aF0.83993993993994
aF0.7929824561403509
aF0.8336182336182336
aF0.7997222222222222
aF0.7934959349593496
aF0.8264550264550264
aF0.8741602067183463
aF0.8376262626262626
aF0.8222222222222222
aF0.8258454106280193
aF0.789598108747045
aF0.8324074074074074
aF0.8315192743764173
aF0.8097777777777778
aF0.8026143790849674
aF0.8111111111111111
aF0.8322851153039832
aF0.8016460905349794
aF0.8137373737373738
aF0.8182539682539682
aF0.7598440545808967
aF0.7745210727969348
aF0.7858757062146893
aF0.8038888888888889
aF0.8005464480874317
aF0.782437275985663
aF0.7566137566137566
aF0.7885416666666667
aF0.7786324786324786
aF0.7728956228956229
aF0.7590381426202322
aF0.7861111111111111
aF0.7814814814814814
aF0.7763492063492063
aF0.7879499217527387
aF0.7753086419753087
aF0.7563165905631659
aF0.7854354354354355
aF0.7579259259259259
aF0.7805555555555556
aF0.7735930735930736
aF0.7525641025641026
aF0.7706047819971871
aF0.7634722222222222
aF0.7674897119341564
aF0.7355013550135502
aF0.7686746987951807
aF0.7620370370370371
aF0.7416993464052287
aF0.7596899224806202
aF0.7633461047254151
aF0.7513888888888889
aF0.7581772784019976
aF0.7474074074074074
aF0.7514041514041514
aF0.7568840579710145
aF0.7507765830346476
aF0.757210401891253
aF0.7501754385964913
aF0.7450231481481482
aF0.7457044673539519
aF0.7464852607709751
aF0.7447811447811448
aa(lp10
F0.9888888888888889
aF0.9333333333333333
aF0.9740740740740741
aF0.9555555555555556
aF0.9266666666666666
aF0.9314814814814815
aF0.9111111111111111
aF0.9305555555555556
aF0.9185185185185185
aF0.9022222222222223
aF0.9292929292929293
aF0.8777777777777778
aF0.847008547008547
aF0.919047619047619
aF0.9259259259259259
aF0.9222222222222223
aF0.8934640522875817
aF0.9209876543209876
aF0.9005847953216374
aF0.8616666666666667
aF0.8746031746031746
aF0.8898989898989899
aF0.8144927536231884
aF0.8722222222222222
aF0.8511111111111112
aF0.8730769230769231
aF0.8382716049382716
aF0.8277777777777777
aF0.881992337164751
aF0.8325925925925926
aF0.8899641577060932
aF0.8659722222222223
aF0.8528619528619529
aF0.8320261437908497
aF0.8450793650793651
aF0.8157407407407408
aF0.8585585585585586
aF0.7888888888888889
aF0.8413105413105413
aF0.8177777777777778
aF0.8384823848238483
aF0.8240740740740741
aF0.8217054263565892
aF0.7691919191919192
aF0.7476543209876543
aF0.8410628019323672
aF0.8153664302600473
aF0.7842592592592592
aF0.8170068027210884
aF0.7868888888888889
aF0.8372549019607843
aF0.8288461538461539
aF0.8010482180293501
aF0.7635802469135803
aF0.8086868686868687
aF0.7716269841269842
aF0.7943469785575049
aF0.7825670498084292
aF0.8005649717514124
aF0.7744444444444445
aF0.8295081967213115
aF0.7815412186379929
aF0.7763668430335097
aF0.7920138888888889
aF0.7866666666666666
aF0.7801346801346801
aF0.7820895522388059
aF0.786437908496732
aF0.7901771336553945
aF0.7452380952380953
aF0.7658841940532082
aF0.7825617283950618
aF0.7730593607305936
aF0.7587087087087087
aF0.7555555555555555
aF0.7681286549707602
aF0.7696969696969697
aF0.7792022792022792
aF0.7355836849507735
aF0.7798611111111111
aF0.7570644718792867
aF0.7452574525745257
aF0.7846050870147255
aF0.763095238095238
aF0.76640522875817
aF0.7697674418604651
aF0.7500638569604087
aF0.7616161616161616
aF0.764669163545568
aF0.7565432098765432
aF0.7617826617826617
aF0.7382850241545894
aF0.7640382317801673
aF0.7560283687943262
aF0.7437426900584795
aF0.7501157407407407
aF0.7427262313860252
aF0.746031746031746
aF0.7494949494949495
aa.